target datalayout = "e-m:e-p270:32:32-p271:32:32-p272:64:64-i64:64-i128:128-f80:128-n8:16:32:64-S128"
target triple = "x86_64-pc-linux-gnu"

%struct._address = type { i32, i32, ptr, ptr }
%struct._packet_info = type { ptr, ptr, i32, i32, %struct.nstime_t, %struct.nstime_t, %struct.nstime_t, i8, ptr, ptr, ptr, ptr, %struct._address, %struct._address, %struct._address, %struct._address, %struct._address, %struct._address, i32, ptr, i8, [3 x i8], %struct.anon, i32, i32, i32, i32, ptr, i8, ptr, ptr, i16, i16, i32, i32, i16, i32, i32, ptr, ptr, ptr, i8, i8, i16, i16, i16, i32, i16, i16, ptr, ptr, ptr, ptr, ptr, i32, i32 }
%struct.nstime_t = type { i64, i32 }
%struct.anon = type { i8, [3 x i8] }
%struct.osmux_hdr = type { i8, i8, i8, i8, i8, i8, i8, i8, i8, i8, ptr }

@hf_osmux_ft_ctr = internal global i32 0, align 4
@hf_osmux_seq = internal global i32 0, align 4
@hf_osmux_circuit_id = internal global i32 0, align 4
@hf_osmux_amr_ft_cmr = internal global i32 0, align 4
@hf_osmux_amr_data = internal global i32 0, align 4
@ett_osmux = internal global i32 0, align 4
@ett_osmux_ft_ctr = internal global i32 0, align 4
@ett_osmux_amr_ft_cmr = internal global i32 0, align 4
@proto_osmux = internal global i32 0, align 4
@dissect_osmux.ft_ctr_fields = internal constant [6 x ptr] [ptr @hf_osmux_rtp_m, ptr @hf_osmux_ft, ptr @hf_osmux_ctr, ptr @hf_osmux_amr_f, ptr @hf_osmux_amr_q, ptr null], align 16
@dissect_osmux.amr_ft_cmr_fields = internal constant [3 x ptr] [ptr @hf_osmux_amr_ft, ptr @hf_osmux_amr_cmr, ptr null], align 16
@.str.56 = private unnamed_addr constant [6 x i8] c"Osmux\00", align 1
@.str.57 = private unnamed_addr constant [3 x i8] c", \00", align 1
@.str.58 = private unnamed_addr constant [7 x i8] c"Osmux \00", align 1
@.str.59 = private unnamed_addr constant [4 x i8] c"%s \00", align 1
@.str.60 = private unnamed_addr constant [15 x i8] c"unknown 0x%02x\00", align 1
@.str.61 = private unnamed_addr constant [5 x i8] c"(M) \00", align 1
@.str.62 = private unnamed_addr constant [20 x i8] c"Osmux type %s frame\00", align 1
@.str.63 = private unnamed_addr constant [19 x i8] c"Old Dummy (CID %u)\00", align 1
@.str.64 = private unnamed_addr constant [10 x i8] c"(CID %u) \00", align 1
@amr_ft_bytes = internal global [9 x i8] c"\0C\0D\0F\11\13\14\1A\1F\05", align 1

; Function Attrs: nounwind null_pointer_is_valid sspstrong uwtable
define internal zeroext i8 @amr_ft_to_bytes(i8 noundef zeroext %0) #6 {
  %2 = alloca i8, align 1
  %3 = alloca i8, align 1
  store i8 %0, ptr %3, align 1
  %4 = load i8, ptr %3, align 1
  %5 = zext i8 %4 to i32
  %6 = icmp sge i32 %5, 9
  br i1 %6, label %7, label %8

7:                                                ; preds = %1
  store i8 0, ptr %2, align 1
  br label %13

8:                                                ; preds = %1
  %9 = load i8, ptr %3, align 1
  %10 = zext i8 %9 to i64
  %11 = getelementptr [9 x i8], ptr @amr_ft_bytes, i64 0, i64 %10
  %12 = load i8, ptr %11, align 1
  store i8 %12, ptr %2, align 1
  br label %13

13:                                               ; preds = %8, %7
  %14 = load i8, ptr %2, align 1
  ret i8 %14
}

; Function Attrs: null_pointer_is_valid sspstrong uwtable
define internal i32 @dissect_osmux(ptr noundef %0, ptr noundef %1, ptr noundef %2, ptr noundef %3) #0 {
  %5 = alloca i32, align 4
  %6 = alloca ptr, align 8
  %7 = alloca ptr, align 8
  %8 = alloca ptr, align 8
  %9 = alloca ptr, align 8
  %10 = alloca i32, align 4
  %11 = alloca ptr, align 8
  %12 = alloca ptr, align 8
  %13 = alloca ptr, align 8
  %14 = alloca i8, align 1
  %15 = alloca i64, align 8
  %16 = alloca i8, align 1
  %17 = alloca i32, align 4
  %18 = alloca i32, align 4
  %19 = alloca i32, align 4
  store ptr %0, ptr %6, align 8
  store ptr %1, ptr %7, align 8
  store ptr %2, ptr %8, align 8
  store ptr %3, ptr %9, align 8
  call void @llvm.lifetime.start.p0(i64 4, ptr %10) #13
  store i32 0, ptr %10, align 4
  %20 = load ptr, ptr %7, align 8
  %21 = getelementptr inbounds nuw %struct._packet_info, ptr %20, i32 0, i32 1
  %22 = load ptr, ptr %21, align 8
  call void @col_set_str(ptr noundef %22, i32 noundef 35, ptr noundef @.str.56)
  %23 = load ptr, ptr %7, align 8
  %24 = getelementptr inbounds nuw %struct._packet_info, ptr %23, i32 0, i32 1
  %25 = load ptr, ptr %24, align 8
  call void @col_clear(ptr noundef %25, i32 noundef 25)
  br label %26

26:                                               ; preds = %238, %4
  %27 = load ptr, ptr %6, align 8
  %28 = load i32, ptr %10, align 4
  %29 = call i32 @tvb_reported_length_remaining(ptr noundef %27, i32 noundef %28)
  %30 = icmp sge i32 %29, 2
  br i1 %30, label %31, label %239

31:                                               ; preds = %26
  call void @llvm.lifetime.start.p0(i64 8, ptr %11) #13
  call void @llvm.lifetime.start.p0(i64 8, ptr %12) #13
  call void @llvm.lifetime.start.p0(i64 8, ptr %13) #13
  store ptr null, ptr %13, align 8
  call void @llvm.lifetime.start.p0(i64 1, ptr %14) #13
  call void @llvm.lifetime.start.p0(i64 8, ptr %15) #13
  call void @llvm.lifetime.start.p0(i64 1, ptr %16) #13
  call void @llvm.lifetime.start.p0(i64 4, ptr %17) #13
  call void @llvm.lifetime.start.p0(i64 4, ptr %18) #13
  %32 = load ptr, ptr %7, align 8
  %33 = getelementptr inbounds nuw %struct._packet_info, ptr %32, i32 0, i32 51
  %34 = load ptr, ptr %33, align 8
  %35 = call noalias ptr @wmem_alloc0(ptr noundef %34, i64 noundef 24) #14
  store ptr %35, ptr %11, align 8
  %36 = load ptr, ptr %6, align 8
  %37 = load i32, ptr %10, align 4
  %38 = call zeroext i8 @tvb_get_uint8(ptr noundef %36, i32 noundef %37)
  store i8 %38, ptr %14, align 1
  %39 = load i8, ptr %14, align 1
  %40 = zext i8 %39 to i32
  %41 = ashr i32 %40, 7
  %42 = icmp ne i32 %41, 0
  %43 = load ptr, ptr %11, align 8
  %44 = getelementptr inbounds nuw %struct.osmux_hdr, ptr %43, i32 0, i32 0
  %45 = zext i1 %42 to i8
  store i8 %45, ptr %44, align 8
  %46 = load i8, ptr %14, align 1
  %47 = zext i8 %46 to i32
  %48 = ashr i32 %47, 5
  %49 = and i32 %48, 3
  %50 = trunc i32 %49 to i8
  %51 = load ptr, ptr %11, align 8
  %52 = getelementptr inbounds nuw %struct.osmux_hdr, ptr %51, i32 0, i32 1
  store i8 %50, ptr %52, align 1
  %53 = load i8, ptr %14, align 1
  %54 = zext i8 %53 to i32
  %55 = ashr i32 %54, 2
  %56 = and i32 %55, 7
  %57 = trunc i32 %56 to i8
  %58 = load ptr, ptr %11, align 8
  %59 = getelementptr inbounds nuw %struct.osmux_hdr, ptr %58, i32 0, i32 2
  store i8 %57, ptr %59, align 2
  %60 = load i8, ptr %14, align 1
  %61 = zext i8 %60 to i32
  %62 = and i32 %61, 2
  %63 = icmp ne i32 %62, 0
  %64 = xor i1 %63, true
  %65 = xor i1 %64, true
  %66 = load ptr, ptr %11, align 8
  %67 = getelementptr inbounds nuw %struct.osmux_hdr, ptr %66, i32 0, i32 4
  %68 = zext i1 %65 to i8
  store i8 %68, ptr %67, align 4
  %69 = load i8, ptr %14, align 1
  %70 = zext i8 %69 to i32
  %71 = and i32 %70, 1
  %72 = icmp ne i32 %71, 0
  %73 = xor i1 %72, true
  %74 = xor i1 %73, true
  %75 = load ptr, ptr %11, align 8
  %76 = getelementptr inbounds nuw %struct.osmux_hdr, ptr %75, i32 0, i32 3
  %77 = zext i1 %74 to i8
  store i8 %77, ptr %76, align 1
  %78 = load ptr, ptr %7, align 8
  %79 = getelementptr inbounds nuw %struct._packet_info, ptr %78, i32 0, i32 1
  %80 = load ptr, ptr %79, align 8
  call void @col_append_sep_str(ptr noundef %80, i32 noundef 25, ptr noundef @.str.57, ptr noundef @.str.58)
  %81 = load ptr, ptr %7, align 8
  %82 = getelementptr inbounds nuw %struct._packet_info, ptr %81, i32 0, i32 1
  %83 = load ptr, ptr %82, align 8
  %84 = load ptr, ptr %11, align 8
  %85 = getelementptr inbounds nuw %struct.osmux_hdr, ptr %84, i32 0, i32 1
  %86 = load i8, ptr %85, align 1
  %87 = zext i8 %86 to i32
  %88 = call ptr @val_to_str(i32 noundef %87, ptr noundef @osmux_ft_vals, ptr noundef @.str.60)
  call void (ptr, i32, ptr, ...) @col_append_fstr(ptr noundef %83, i32 noundef 25, ptr noundef @.str.59, ptr noundef %88)
  %89 = load ptr, ptr %11, align 8
  %90 = getelementptr inbounds nuw %struct.osmux_hdr, ptr %89, i32 0, i32 0
  %91 = load i8, ptr %90, align 8, !range !6, !noundef !7
  %92 = trunc i8 %91 to i1
  br i1 %92, label %93, label %97

93:                                               ; preds = %31
  %94 = load ptr, ptr %7, align 8
  %95 = getelementptr inbounds nuw %struct._packet_info, ptr %94, i32 0, i32 1
  %96 = load ptr, ptr %95, align 8
  call void @col_append_str(ptr noundef %96, i32 noundef 25, ptr noundef @.str.61)
  br label %97

97:                                               ; preds = %93, %31
  %98 = load ptr, ptr %8, align 8
  %99 = load i32, ptr @proto_osmux, align 4
  %100 = load ptr, ptr %6, align 8
  %101 = load i32, ptr %10, align 4
  %102 = load ptr, ptr %11, align 8
  %103 = getelementptr inbounds nuw %struct.osmux_hdr, ptr %102, i32 0, i32 1
  %104 = load i8, ptr %103, align 1
  %105 = zext i8 %104 to i32
  %106 = call ptr @val_to_str(i32 noundef %105, ptr noundef @osmux_ft_vals, ptr noundef @.str.60)
  %107 = call ptr (ptr, i32, ptr, i32, i32, ptr, ...) @proto_tree_add_protocol_format(ptr noundef %98, i32 noundef %99, ptr noundef %100, i32 noundef %101, i32 noundef -1, ptr noundef @.str.62, ptr noundef %106)
  store ptr %107, ptr %12, align 8
  %108 = load ptr, ptr %12, align 8
  %109 = load i32, ptr @ett_osmux, align 4
  %110 = call ptr @proto_item_add_subtree(ptr noundef %108, i32 noundef %109)
  store ptr %110, ptr %13, align 8
  %111 = load ptr, ptr %13, align 8
  %112 = load ptr, ptr %6, align 8
  %113 = load i32, ptr %10, align 4
  %114 = load i32, ptr @hf_osmux_ft_ctr, align 4
  %115 = load i32, ptr @ett_osmux_ft_ctr, align 4
  %116 = call ptr @proto_tree_add_bitmask(ptr noundef %111, ptr noundef %112, i32 noundef %113, i32 noundef %114, i32 noundef %115, ptr noundef @dissect_osmux.ft_ctr_fields, i32 noundef 0)
  %117 = load i32, ptr %10, align 4
  %118 = add i32 %117, 1
  store i32 %118, ptr %10, align 4
  %119 = load i8, ptr %14, align 1
  %120 = zext i8 %119 to i32
  %121 = icmp eq i32 %120, 35
  br i1 %121, label %122, label %153

122:                                              ; preds = %97
  %123 = load ptr, ptr %6, align 8
  %124 = load i32, ptr %10, align 4
  %125 = sub i32 %124, 1
  %126 = call i32 @tvb_reported_length_remaining(ptr noundef %123, i32 noundef %125)
  %127 = icmp eq i32 %126, 2
  br i1 %127, label %128, label %153

128:                                              ; preds = %122
  %129 = load ptr, ptr %11, align 8
  %130 = getelementptr inbounds nuw %struct.osmux_hdr, ptr %129, i32 0, i32 9
  store i8 1, ptr %130, align 1
  %131 = load ptr, ptr %13, align 8
  %132 = load i32, ptr @hf_osmux_circuit_id, align 4
  %133 = load ptr, ptr %6, align 8
  %134 = load i32, ptr %10, align 4
  %135 = call ptr @proto_tree_add_item_ret_uint(ptr noundef %131, i32 noundef %132, ptr noundef %133, i32 noundef %134, i32 noundef 1, i32 noundef 0, ptr noundef %18)
  %136 = load i32, ptr %18, align 4
  %137 = trunc i32 %136 to i8
  %138 = load ptr, ptr %11, align 8
  %139 = getelementptr inbounds nuw %struct.osmux_hdr, ptr %138, i32 0, i32 6
  store i8 %137, ptr %139, align 2
  %140 = load ptr, ptr %7, align 8
  %141 = getelementptr inbounds nuw %struct._packet_info, ptr %140, i32 0, i32 1
  %142 = load ptr, ptr %141, align 8
  %143 = load ptr, ptr %11, align 8
  %144 = getelementptr inbounds nuw %struct.osmux_hdr, ptr %143, i32 0, i32 6
  %145 = load i8, ptr %144, align 2
  %146 = zext i8 %145 to i32
  call void (ptr, i32, ptr, ...) @col_append_fstr(ptr noundef %142, i32 noundef 25, ptr noundef @.str.63, i32 noundef %146)
  %147 = load ptr, ptr %6, align 8
  %148 = load ptr, ptr %7, align 8
  %149 = load ptr, ptr %8, align 8
  %150 = load ptr, ptr %11, align 8
  call void @finish_process_pkt(ptr noundef %147, ptr noundef %148, ptr noundef %149, ptr noundef %150)
  %151 = load ptr, ptr %6, align 8
  %152 = call i32 @tvb_reported_length(ptr noundef %151)
  store i32 %152, ptr %5, align 4
  store i32 1, ptr %19, align 4
  br label %236

153:                                              ; preds = %122, %97
  %154 = load ptr, ptr %13, align 8
  %155 = load i32, ptr @hf_osmux_seq, align 4
  %156 = load ptr, ptr %6, align 8
  %157 = load i32, ptr %10, align 4
  %158 = call ptr @proto_tree_add_item_ret_uint(ptr noundef %154, i32 noundef %155, ptr noundef %156, i32 noundef %157, i32 noundef 1, i32 noundef 0, ptr noundef %18)
  %159 = load i32, ptr %18, align 4
  %160 = trunc i32 %159 to i8
  %161 = load ptr, ptr %11, align 8
  %162 = getelementptr inbounds nuw %struct.osmux_hdr, ptr %161, i32 0, i32 5
  store i8 %160, ptr %162, align 1
  %163 = load i32, ptr %10, align 4
  %164 = add i32 %163, 1
  store i32 %164, ptr %10, align 4
  %165 = load ptr, ptr %13, align 8
  %166 = load i32, ptr @hf_osmux_circuit_id, align 4
  %167 = load ptr, ptr %6, align 8
  %168 = load i32, ptr %10, align 4
  %169 = call ptr @proto_tree_add_item_ret_uint(ptr noundef %165, i32 noundef %166, ptr noundef %167, i32 noundef %168, i32 noundef 1, i32 noundef 0, ptr noundef %18)
  %170 = load i32, ptr %18, align 4
  %171 = trunc i32 %170 to i8
  %172 = load ptr, ptr %11, align 8
  %173 = getelementptr inbounds nuw %struct.osmux_hdr, ptr %172, i32 0, i32 6
  store i8 %171, ptr %173, align 2
  %174 = load i32, ptr %10, align 4
  %175 = add i32 %174, 1
  store i32 %175, ptr %10, align 4
  %176 = load ptr, ptr %7, align 8
  %177 = getelementptr inbounds nuw %struct._packet_info, ptr %176, i32 0, i32 1
  %178 = load ptr, ptr %177, align 8
  %179 = load ptr, ptr %11, align 8
  %180 = getelementptr inbounds nuw %struct.osmux_hdr, ptr %179, i32 0, i32 6
  %181 = load i8, ptr %180, align 2
  %182 = zext i8 %181 to i32
  call void (ptr, i32, ptr, ...) @col_append_fstr(ptr noundef %178, i32 noundef 25, ptr noundef @.str.64, i32 noundef %182)
  %183 = load ptr, ptr %13, align 8
  %184 = load ptr, ptr %6, align 8
  %185 = load i32, ptr %10, align 4
  %186 = load i32, ptr @hf_osmux_amr_ft_cmr, align 4
  %187 = load i32, ptr @ett_osmux_amr_ft_cmr, align 4
  %188 = call ptr @proto_tree_add_bitmask_ret_uint64(ptr noundef %183, ptr noundef %184, i32 noundef %185, i32 noundef %186, i32 noundef %187, ptr noundef @dissect_osmux.amr_ft_cmr_fields, i32 noundef 0, ptr noundef %15)
  %189 = load i32, ptr %10, align 4
  %190 = add i32 %189, 1
  store i32 %190, ptr %10, align 4
  %191 = load i64, ptr %15, align 8
  %192 = and i64 %191, 240
  %193 = trunc i64 %192 to i32
  %194 = lshr i32 %193, 4
  %195 = trunc i32 %194 to i8
  %196 = load ptr, ptr %11, align 8
  %197 = getelementptr inbounds nuw %struct.osmux_hdr, ptr %196, i32 0, i32 8
  store i8 %195, ptr %197, align 8
  %198 = load i64, ptr %15, align 8
  %199 = trunc i64 %198 to i32
  %200 = and i32 %199, 15
  %201 = trunc i32 %200 to i8
  %202 = load ptr, ptr %11, align 8
  %203 = getelementptr inbounds nuw %struct.osmux_hdr, ptr %202, i32 0, i32 7
  store i8 %201, ptr %203, align 1
  %204 = load ptr, ptr %11, align 8
  %205 = getelementptr inbounds nuw %struct.osmux_hdr, ptr %204, i32 0, i32 8
  %206 = load i8, ptr %205, align 8
  %207 = call zeroext i8 @amr_ft_to_bytes(i8 noundef zeroext %206)
  %208 = zext i8 %207 to i32
  store i32 %208, ptr %17, align 4
  store i8 0, ptr %16, align 1
  br label %209

209:                                              ; preds = %228, %153
  %210 = load i8, ptr %16, align 1
  %211 = zext i8 %210 to i32
  %212 = load ptr, ptr %11, align 8
  %213 = getelementptr inbounds nuw %struct.osmux_hdr, ptr %212, i32 0, i32 2
  %214 = load i8, ptr %213, align 2
  %215 = zext i8 %214 to i32
  %216 = add i32 %215, 1
  %217 = icmp slt i32 %211, %216
  br i1 %217, label %218, label %231

218:                                              ; preds = %209
  %219 = load ptr, ptr %13, align 8
  %220 = load i32, ptr @hf_osmux_amr_data, align 4
  %221 = load ptr, ptr %6, align 8
  %222 = load i32, ptr %10, align 4
  %223 = load i32, ptr %17, align 4
  %224 = call ptr @proto_tree_add_item(ptr noundef %219, i32 noundef %220, ptr noundef %221, i32 noundef %222, i32 noundef %223, i32 noundef 0)
  %225 = load i32, ptr %17, align 4
  %226 = load i32, ptr %10, align 4
  %227 = add i32 %226, %225
  store i32 %227, ptr %10, align 4
  br label %228

228:                                              ; preds = %218
  %229 = load i8, ptr %16, align 1
  %230 = add i8 %229, 1
  store i8 %230, ptr %16, align 1
  br label %209, !llvm.loop !8

231:                                              ; preds = %209
  %232 = load ptr, ptr %6, align 8
  %233 = load ptr, ptr %7, align 8
  %234 = load ptr, ptr %8, align 8
  %235 = load ptr, ptr %11, align 8
  call void @finish_process_pkt(ptr noundef %232, ptr noundef %233, ptr noundef %234, ptr noundef %235)
  store i32 0, ptr %19, align 4
  br label %236

236:                                              ; preds = %231, %128
  call void @llvm.lifetime.end.p0(i64 4, ptr %18) #13
  call void @llvm.lifetime.end.p0(i64 4, ptr %17) #13
  call void @llvm.lifetime.end.p0(i64 1, ptr %16) #13
  call void @llvm.lifetime.end.p0(i64 8, ptr %15) #13
  call void @llvm.lifetime.end.p0(i64 1, ptr %14) #13
  call void @llvm.lifetime.end.p0(i64 8, ptr %13) #13
  call void @llvm.lifetime.end.p0(i64 8, ptr %12) #13
  call void @llvm.lifetime.end.p0(i64 8, ptr %11) #13
  %237 = load i32, ptr %19, align 4
  switch i32 %237, label %242 [
    i32 0, label %238
  ]

238:                                              ; preds = %236
  br label %26, !llvm.loop !10

239:                                              ; preds = %26
  %240 = load ptr, ptr %6, align 8
  %241 = call i32 @tvb_reported_length(ptr noundef %240)
  store i32 %241, ptr %5, align 4
  store i32 1, ptr %19, align 4
  br label %242

242:                                              ; preds = %239, %236
  call void @llvm.lifetime.end.p0(i64 4, ptr %10) #13
  %243 = load i32, ptr %5, align 4
  ret i32 %243
}