; Function Attrs: null_pointer_is_valid sspstrong uwtable
define internal i32 @dissect_osmux(ptr noundef %0, ptr noundef %1, ptr noundef %2, ptr readnone captures(none) %3) #0 {
  %5 = alloca i64, align 8
  %6 = alloca i32, align 4
  %7 = getelementptr inbounds nuw i8, ptr %1, i64 8
  %8 = load ptr, ptr %7, align 8
  tail call void @col_set_str(ptr noundef %8, i32 noundef 35, ptr noundef nonnull @.str.56)
  %9 = load ptr, ptr %7, align 8
  tail call void @col_clear(ptr noundef %9, i32 noundef 25)
  %10 = tail call i32 @tvb_reported_length_remaining(ptr noundef %0, i32 noundef 0)
  %11 = icmp sgt i32 %10, 1
  br i1 %11, label %.lr.ph, label %._crit_edge

.lr.ph:                                           ; preds = %4
  %12 = getelementptr inbounds nuw i8, ptr %1, i64 408
  br label %13

13:                                               ; preds = %.lr.ph, %98
  %.08293 = phi i32 [ 0, %.lr.ph ], [ %95, %98 ]
  call void @llvm.lifetime.start.p0(i64 8, ptr nonnull %5) #12
  call void @llvm.lifetime.start.p0(i64 4, ptr nonnull %6) #12
  %14 = load ptr, ptr %12, align 8
  %15 = call noalias dereferenceable_or_null(24) ptr @wmem_alloc0(ptr noundef %14, i64 noundef 24) #13
  %16 = call zeroext i8 @tvb_get_uint8(ptr noundef %0, i32 noundef %.08293)
  %.lobit = lshr i8 %16, 7
  store i8 %.lobit, ptr %15, align 8
  %17 = lshr i8 %16, 5
  %18 = and i8 %17, 3
  %19 = getelementptr inbounds nuw i8, ptr %15, i64 1
  store i8 %18, ptr %19, align 1
  %20 = lshr i8 %16, 2
  %21 = and i8 %20, 7
  %22 = getelementptr inbounds nuw i8, ptr %15, i64 2
  store i8 %21, ptr %22, align 2
  %23 = getelementptr inbounds nuw i8, ptr %15, i64 4
  %24 = lshr i8 %16, 1
  %.lobit85 = and i8 %24, 1
  store i8 %.lobit85, ptr %23, align 4
  %25 = and i8 %16, 1
  %26 = getelementptr inbounds nuw i8, ptr %15, i64 3
  store i8 %25, ptr %26, align 1
  %27 = load ptr, ptr %7, align 8
  call void @col_append_sep_str(ptr noundef %27, i32 noundef 25, ptr noundef nonnull @.str.57, ptr noundef nonnull @.str.58)
  %28 = load ptr, ptr %7, align 8
  %29 = load i8, ptr %19, align 1
  %30 = zext i8 %29 to i32
  %31 = call ptr @val_to_str(i32 noundef %30, ptr noundef nonnull @osmux_ft_vals, ptr noundef nonnull @.str.60)
  call void (ptr, i32, ptr, ...) @col_append_fstr(ptr noundef %28, i32 noundef 25, ptr noundef nonnull @.str.59, ptr noundef %31)
  %32 = load i8, ptr %15, align 8, !range !8, !noundef !9
  %33 = trunc nuw i8 %32 to i1
  br i1 %33, label %34, label %36

34:                                               ; preds = %13
  %35 = load ptr, ptr %7, align 8
  call void @col_append_str(ptr noundef %35, i32 noundef 25, ptr noundef nonnull @.str.61)
  br label %36

36:                                               ; preds = %34, %13
  %37 = load i32, ptr @proto_osmux, align 4
  %38 = load i8, ptr %19, align 1
  %39 = zext i8 %38 to i32
  %40 = call ptr @val_to_str(i32 noundef %39, ptr noundef nonnull @osmux_ft_vals, ptr noundef nonnull @.str.60)
  %41 = call ptr (ptr, i32, ptr, i32, i32, ptr, ...) @proto_tree_add_protocol_format(ptr noundef %2, i32 noundef %37, ptr noundef %0, i32 noundef %.08293, i32 noundef -1, ptr noundef nonnull @.str.62, ptr noundef %40)
  %42 = load i32, ptr @ett_osmux, align 4
  %43 = call ptr @proto_item_add_subtree(ptr noundef %41, i32 noundef %42)
  %44 = load i32, ptr @hf_osmux_ft_ctr, align 4
  %45 = load i32, ptr @ett_osmux_ft_ctr, align 4
  %46 = call ptr @proto_tree_add_bitmask(ptr noundef %43, ptr noundef %0, i32 noundef %.08293, i32 noundef %44, i32 noundef %45, ptr noundef nonnull @dissect_osmux.ft_ctr_fields, i32 noundef 0)
  %47 = add i32 %.08293, 1
  %48 = icmp eq i8 %16, 35
  br i1 %48, label %49, label %61

49:                                               ; preds = %36
  %50 = call i32 @tvb_reported_length_remaining(ptr noundef %0, i32 noundef %.08293)
  %51 = icmp eq i32 %50, 2
  br i1 %51, label %.thread, label %61

.thread:                                          ; preds = %49
  %52 = getelementptr inbounds nuw i8, ptr %15, i64 9
  store i8 1, ptr %52, align 1
  %53 = load i32, ptr @hf_osmux_circuit_id, align 4
  %54 = call ptr @proto_tree_add_item_ret_uint(ptr noundef %43, i32 noundef %53, ptr noundef %0, i32 noundef %47, i32 noundef 1, i32 noundef 0, ptr noundef nonnull %6)
  %55 = load i32, ptr %6, align 4
  %56 = trunc i32 %55 to i8
  %57 = getelementptr inbounds nuw i8, ptr %15, i64 6
  store i8 %56, ptr %57, align 2
  %58 = load ptr, ptr %7, align 8
  %59 = and i32 %55, 255
  call void (ptr, i32, ptr, ...) @col_append_fstr(ptr noundef %58, i32 noundef 25, ptr noundef nonnull @.str.63, i32 noundef %59)
  call fastcc void @finish_process_pkt(ptr noundef %0, ptr noundef %1, ptr noundef %2, ptr noundef %15)
  %60 = call i32 @tvb_reported_length(ptr noundef %0)
  call void @llvm.lifetime.end.p0(i64 4, ptr nonnull %6) #12
  call void @llvm.lifetime.end.p0(i64 8, ptr nonnull %5) #12
  br label %102

61:                                               ; preds = %49, %36
  %62 = load i32, ptr @hf_osmux_seq, align 4
  %63 = call ptr @proto_tree_add_item_ret_uint(ptr noundef %43, i32 noundef %62, ptr noundef %0, i32 noundef %47, i32 noundef 1, i32 noundef 0, ptr noundef nonnull %6)
  %64 = load i32, ptr %6, align 4
  %65 = trunc i32 %64 to i8
  %66 = getelementptr inbounds nuw i8, ptr %15, i64 5
  store i8 %65, ptr %66, align 1
  %67 = add i32 %.08293, 2
  %68 = load i32, ptr @hf_osmux_circuit_id, align 4
  %69 = call ptr @proto_tree_add_item_ret_uint(ptr noundef %43, i32 noundef %68, ptr noundef %0, i32 noundef %67, i32 noundef 1, i32 noundef 0, ptr noundef nonnull %6)
  %70 = load i32, ptr %6, align 4
  %71 = trunc i32 %70 to i8
  %72 = getelementptr inbounds nuw i8, ptr %15, i64 6
  store i8 %71, ptr %72, align 2
  %73 = add i32 %.08293, 3
  %74 = load ptr, ptr %7, align 8
  %75 = and i32 %70, 255
  call void (ptr, i32, ptr, ...) @col_append_fstr(ptr noundef %74, i32 noundef 25, ptr noundef nonnull @.str.64, i32 noundef %75)
  %76 = load i32, ptr @hf_osmux_amr_ft_cmr, align 4
  %77 = load i32, ptr @ett_osmux_amr_ft_cmr, align 4
  %78 = call ptr @proto_tree_add_bitmask_ret_uint64(ptr noundef %43, ptr noundef %0, i32 noundef %73, i32 noundef %76, i32 noundef %77, ptr noundef nonnull @dissect_osmux.amr_ft_cmr_fields, i32 noundef 0, ptr noundef nonnull %5)
  %79 = add i32 %.08293, 4
  %80 = load i64, ptr %5, align 8
  %81 = trunc i64 %80 to i8
  %82 = lshr i8 %81, 4
  %83 = getelementptr inbounds nuw i8, ptr %15, i64 8
  store i8 %82, ptr %83, align 8
  %84 = and i8 %81, 15
  %85 = getelementptr inbounds nuw i8, ptr %15, i64 7
  store i8 %84, ptr %85, align 1
  %86 = icmp ugt i8 %81, -113
  br i1 %86, label %amr_ft_to_bytes.exit, label %87

87:                                               ; preds = %61
  %88 = zext nneg i8 %82 to i64
  %89 = getelementptr [9 x i8], ptr @amr_ft_bytes, i64 0, i64 %88
  %90 = load i8, ptr %89, align 1
  %91 = zext i8 %90 to i32
  br label %amr_ft_to_bytes.exit

amr_ft_to_bytes.exit:                             ; preds = %61, %87
  %.0.i = phi i32 [ %91, %87 ], [ 0, %61 ]
  br label %92

92:                                               ; preds = %amr_ft_to_bytes.exit, %92
  %.08192 = phi i8 [ 0, %amr_ft_to_bytes.exit ], [ %96, %92 ]
  %.28491 = phi i32 [ %79, %amr_ft_to_bytes.exit ], [ %95, %92 ]
  %93 = load i32, ptr @hf_osmux_amr_data, align 4
  %94 = call ptr @proto_tree_add_item(ptr noundef %43, i32 noundef %93, ptr noundef %0, i32 noundef %.28491, i32 noundef %.0.i, i32 noundef 0)
  %95 = add i32 %.28491, %.0.i
  %96 = add i8 %.08192, 1
  %97 = load i8, ptr %22, align 2
  %.not = icmp ult i8 %97, %96
  br i1 %.not, label %98, label %92, !llvm.loop !10

98:                                               ; preds = %92
  call fastcc void @finish_process_pkt(ptr noundef %0, ptr noundef %1, ptr noundef %2, ptr noundef %15)
  call void @llvm.lifetime.end.p0(i64 4, ptr nonnull %6) #12
  call void @llvm.lifetime.end.p0(i64 8, ptr nonnull %5) #12
  %99 = call i32 @tvb_reported_length_remaining(ptr noundef %0, i32 noundef %95)
  %100 = icmp sgt i32 %99, 1
  br i1 %100, label %13, label %._crit_edge, !llvm.loop !11

._crit_edge:                                      ; preds = %98, %4
  %101 = call i32 @tvb_reported_length(ptr noundef %0)
  br label %102

102:                                              ; preds = %.thread, %._crit_edge
  %.2 = phi i32 [ %101, %._crit_edge ], [ %60, %.thread ]
  ret i32 %.2
}